target datalayout = "e-m:e-p270:32:32-p271:32:32-p272:64:64-i64:64-i128:128-f80:128-n8:16:32:64-S128"
target triple = "x86_64-pc-linux-gnu"

@.str.118 = private unnamed_addr constant [81 x i8] c"There are %d other session(s) and %d prepared transaction(s) using the database.\00", align 1
@.str.119 = private unnamed_addr constant [46 x i8] c"There is %d other session using the database.\00", align 1
@.str.120 = private unnamed_addr constant [48 x i8] c"There are %d other sessions using the database.\00", align 1
@.str.121 = private unnamed_addr constant [53 x i8] c"There is %d prepared transaction using the database.\00", align 1
@.str.122 = private unnamed_addr constant [55 x i8] c"There are %d prepared transactions using the database.\00", align 1

; Function Attrs: nounwind uwtable
define internal i32 @errdetail_busy_db(i32 noundef %0, i32 noundef %1) #0 {
  %3 = alloca i32, align 4
  %4 = alloca i32, align 4
  store i32 %0, ptr %3, align 4
  store i32 %1, ptr %4, align 4
  %5 = load i32, ptr %3, align 4
  %6 = icmp sgt i32 %5, 0
  br i1 %6, label %7, label %14

7:                                                ; preds = %2
  %8 = load i32, ptr %4, align 4
  %9 = icmp sgt i32 %8, 0
  br i1 %9, label %10, label %14

10:                                               ; preds = %7
  %11 = load i32, ptr %3, align 4
  %12 = load i32, ptr %4, align 4
  %13 = call i32 (ptr, ...) @errdetail(ptr noundef @.str.118, i32 noundef %11, i32 noundef %12)
  br label %28

14:                                               ; preds = %7, %2
  %15 = load i32, ptr %3, align 4
  %16 = icmp sgt i32 %15, 0
  br i1 %16, label %17, label %22

17:                                               ; preds = %14
  %18 = load i32, ptr %3, align 4
  %19 = sext i32 %18 to i64
  %20 = load i32, ptr %3, align 4
  %21 = call i32 (ptr, ptr, i64, ...) @errdetail_plural(ptr noundef @.str.119, ptr noundef @.str.120, i64 noundef %19, i32 noundef %20)
  br label %27

22:                                               ; preds = %14
  %23 = load i32, ptr %4, align 4
  %24 = sext i32 %23 to i64
  %25 = load i32, ptr %4, align 4
  %26 = call i32 (ptr, ptr, i64, ...) @errdetail_plural(ptr noundef @.str.121, ptr noundef @.str.122, i64 noundef %24, i32 noundef %25)
  br label %27

27:                                               ; preds = %22, %17
  br label %28

28:                                               ; preds = %27, %10
  ret i32 0
}