; Function Attrs: nounwind uwtable
define internal fastcc void @errdetail_busy_db(i32 noundef %0, i32 noundef %1) unnamed_addr #0 {
  %3 = icmp sgt i32 %0, 0
  %4 = icmp sgt i32 %1, 0
  %or.cond = and i1 %3, %4
  br i1 %or.cond, label %5, label %7

5:                                                ; preds = %2
  %6 = tail call i32 (ptr, ...) @errdetail(ptr noundef nonnull @.str.118, i32 noundef %0, i32 noundef %1) #16
  br label %14

7:                                                ; preds = %2
  br i1 %3, label %8, label %11

8:                                                ; preds = %7
  %9 = zext nneg i32 %0 to i64
  %10 = tail call i32 (ptr, ptr, i64, ...) @errdetail_plural(ptr noundef nonnull @.str.119, ptr noundef nonnull @.str.120, i64 noundef %9, i32 noundef %0) #16
  br label %14

11:                                               ; preds = %7
  %12 = sext i32 %1 to i64
  %13 = tail call i32 (ptr, ptr, i64, ...) @errdetail_plural(ptr noundef nonnull @.str.121, ptr noundef nonnull @.str.122, i64 noundef %12, i32 noundef %1) #16
  br label %14

14:                                               ; preds = %8, %11, %5
  ret void
}